; Function Attrs: mustprogress nofree norecurse nosync nounwind willreturn memory(argmem: read) uwtable
define noundef zeroext i1 @_ZNK32pxrInternal_v0_24__pxrReserved__11NdrProperty13IsConnectableEv(ptr nocapture noundef nonnull readonly align 8 dereferenceable(120) %0) unnamed_addr #4 align 2 {
  %2 = getelementptr inbounds nuw i8, ptr %0, i64 57
  %3 = load i8, ptr %2, align 1
  %4 = trunc i8 %3 to i1
  %5 = getelementptr inbounds nuw i8, ptr %0, i64 40
  %6 = load i8, ptr %5, align 8
  %7 = trunc i8 %6 to i1
  %8 = xor i1 %7, true
  %9 = select i1 %4, i1 %8, i1 false
  ret i1 %9
}